target datalayout = "e-m:e-p270:32:32-p271:32:32-p272:64:64-i64:64-i128:128-f80:128-n8:16:32:64-S128"
target triple = "x86_64-pc-linux-gnu"

@AV_CRC_8_ATM_once_control = internal global i32 0, align 4
@AV_CRC_8_EBU_once_control = internal global i32 0, align 4
@AV_CRC_16_ANSI_once_control = internal global i32 0, align 4
@AV_CRC_16_CCITT_once_control = internal global i32 0, align 4
@AV_CRC_24_IEEE_once_control = internal global i32 0, align 4
@AV_CRC_32_IEEE_once_control = internal global i32 0, align 4
@AV_CRC_32_IEEE_LE_once_control = internal global i32 0, align 4
@AV_CRC_16_ANSI_LE_once_control = internal global i32 0, align 4
@.str = private unnamed_addr constant [30 x i8] c"Assertion %s failed at %s:%d\0A\00", align 1
@.str.1 = private unnamed_addr constant [2 x i8] c"0\00", align 1
@.str.2 = private unnamed_addr constant [16 x i8] c"libavutil/crc.c\00", align 1
@av_crc_table = internal global [8 x [1024 x i32]] zeroinitializer, align 16

; Function Attrs: nounwind uwtable
define ptr @av_crc_get_table(i32 noundef %0) #0 {
  %2 = alloca i32, align 4
  store i32 %0, ptr %2, align 4, !tbaa !9
  %3 = load i32, ptr %2, align 4, !tbaa !9
  switch i32 %3, label %20 [
    i32 0, label %4
    i32 7, label %6
    i32 1, label %8
    i32 2, label %10
    i32 6, label %12
    i32 3, label %14
    i32 4, label %16
    i32 5, label %18
  ]

4:                                                ; preds = %1
  %5 = call i32 @pthread_once(ptr noundef @AV_CRC_8_ATM_once_control, ptr noundef @AV_CRC_8_ATM_init_table_once)
  br label %23

6:                                                ; preds = %1
  %7 = call i32 @pthread_once(ptr noundef @AV_CRC_8_EBU_once_control, ptr noundef @AV_CRC_8_EBU_init_table_once)
  br label %23

8:                                                ; preds = %1
  %9 = call i32 @pthread_once(ptr noundef @AV_CRC_16_ANSI_once_control, ptr noundef @AV_CRC_16_ANSI_init_table_once)
  br label %23

10:                                               ; preds = %1
  %11 = call i32 @pthread_once(ptr noundef @AV_CRC_16_CCITT_once_control, ptr noundef @AV_CRC_16_CCITT_init_table_once)
  br label %23

12:                                               ; preds = %1
  %13 = call i32 @pthread_once(ptr noundef @AV_CRC_24_IEEE_once_control, ptr noundef @AV_CRC_24_IEEE_init_table_once)
  br label %23

14:                                               ; preds = %1
  %15 = call i32 @pthread_once(ptr noundef @AV_CRC_32_IEEE_once_control, ptr noundef @AV_CRC_32_IEEE_init_table_once)
  br label %23

16:                                               ; preds = %1
  %17 = call i32 @pthread_once(ptr noundef @AV_CRC_32_IEEE_LE_once_control, ptr noundef @AV_CRC_32_IEEE_LE_init_table_once)
  br label %23

18:                                               ; preds = %1
  %19 = call i32 @pthread_once(ptr noundef @AV_CRC_16_ANSI_LE_once_control, ptr noundef @AV_CRC_16_ANSI_LE_init_table_once)
  br label %23

20:                                               ; preds = %1
  br label %21

21:                                               ; preds = %20
  call void (ptr, i32, ptr, ...) @av_log(ptr noundef null, i32 noundef 0, ptr noundef @.str, ptr noundef @.str.1, ptr noundef @.str.2, i32 noundef 386)
  call void @abort() #8
  unreachable

22:                                               ; No predecessors!
  br label %23

23:                                               ; preds = %22, %18, %16, %14, %12, %10, %8, %6, %4
  %24 = load i32, ptr %2, align 4, !tbaa !9
  %25 = zext i32 %24 to i64
  %26 = getelementptr inbounds nuw [8 x [1024 x i32]], ptr @av_crc_table, i64 0, i64 %25
  %27 = getelementptr inbounds [1024 x i32], ptr %26, i64 0, i64 0
  ret ptr %27
}