; Function Attrs: nounwind uwtable
define nonnull ptr @av_crc_get_table(i32 noundef %0) local_unnamed_addr #1 {
  switch i32 %0, label %18 [
    i32 0, label %2
    i32 7, label %4
    i32 1, label %6
    i32 2, label %8
    i32 6, label %10
    i32 3, label %12
    i32 4, label %14
    i32 5, label %16
  ]

2:                                                ; preds = %1
  %3 = tail call i32 @pthread_once(ptr noundef nonnull @AV_CRC_8_ATM_once_control, ptr noundef nonnull @AV_CRC_8_ATM_init_table_once) #7
  br label %19

4:                                                ; preds = %1
  %5 = tail call i32 @pthread_once(ptr noundef nonnull @AV_CRC_8_EBU_once_control, ptr noundef nonnull @AV_CRC_8_EBU_init_table_once) #7
  br label %19

6:                                                ; preds = %1
  %7 = tail call i32 @pthread_once(ptr noundef nonnull @AV_CRC_16_ANSI_once_control, ptr noundef nonnull @AV_CRC_16_ANSI_init_table_once) #7
  br label %19

8:                                                ; preds = %1
  %9 = tail call i32 @pthread_once(ptr noundef nonnull @AV_CRC_16_CCITT_once_control, ptr noundef nonnull @AV_CRC_16_CCITT_init_table_once) #7
  br label %19

10:                                               ; preds = %1
  %11 = tail call i32 @pthread_once(ptr noundef nonnull @AV_CRC_24_IEEE_once_control, ptr noundef nonnull @AV_CRC_24_IEEE_init_table_once) #7
  br label %19

12:                                               ; preds = %1
  %13 = tail call i32 @pthread_once(ptr noundef nonnull @AV_CRC_32_IEEE_once_control, ptr noundef nonnull @AV_CRC_32_IEEE_init_table_once) #7
  br label %19

14:                                               ; preds = %1
  %15 = tail call i32 @pthread_once(ptr noundef nonnull @AV_CRC_32_IEEE_LE_once_control, ptr noundef nonnull @AV_CRC_32_IEEE_LE_init_table_once) #7
  br label %19

16:                                               ; preds = %1
  %17 = tail call i32 @pthread_once(ptr noundef nonnull @AV_CRC_16_ANSI_LE_once_control, ptr noundef nonnull @AV_CRC_16_ANSI_LE_init_table_once) #7
  br label %19

18:                                               ; preds = %1
  tail call void (ptr, i32, ptr, ...) @av_log(ptr noundef null, i32 noundef 0, ptr noundef nonnull @.str, ptr noundef nonnull @.str.1, ptr noundef nonnull @.str.2, i32 noundef 386) #7
  tail call void @abort() #8
  unreachable

19:                                               ; preds = %16, %14, %12, %10, %8, %6, %4, %2
  %20 = zext nneg i32 %0 to i64
  %21 = getelementptr inbounds nuw [8 x [1024 x i32]], ptr @av_crc_table, i64 0, i64 %20
  ret ptr %21
}